; Function Attrs: mustprogress uwtable
define hidden i32 @ncnn_net_get_input_index(ptr nocapture noundef readonly %0, i32 noundef %1) local_unnamed_addr #1 {
  %3 = load ptr, ptr %0, align 8
  %4 = tail call noundef nonnull align 8 dereferenceable(24) ptr @_ZNK4ncnn3Net13input_indexesEv(ptr noundef nonnull align 8 dereferenceable(80) %3)
  %5 = sext i32 %1 to i64
  %6 = load ptr, ptr %4, align 8
  %7 = getelementptr inbounds i32, ptr %6, i64 %5
  %8 = load i32, ptr %7, align 4
  ret i32 %8
}